target datalayout = "e-m:e-p270:32:32-p271:32:32-p272:64:64-i64:64-i128:128-f80:128-n8:16:32:64-S128"
target triple = "x86_64-pc-linux-gnu"

%struct.JNINativeInterface_ = type { ptr, ptr, ptr, ptr, ptr, ptr, ptr, ptr, ptr, ptr, ptr, ptr, ptr, ptr, ptr, ptr, ptr, ptr, ptr, ptr, ptr, ptr, ptr, ptr, ptr, ptr, ptr, ptr, ptr, ptr, ptr, ptr, ptr, ptr, ptr, ptr, ptr, ptr, ptr, ptr, ptr, ptr, ptr, ptr, ptr, ptr, ptr, ptr, ptr, ptr, ptr, ptr, ptr, ptr, ptr, ptr, ptr, ptr, ptr, ptr, ptr, ptr, ptr, ptr, ptr, ptr, ptr, ptr, ptr, ptr, ptr, ptr, ptr, ptr, ptr, ptr, ptr, ptr, ptr, ptr, ptr, ptr, ptr, ptr, ptr, ptr, ptr, ptr, ptr, ptr, ptr, ptr, ptr, ptr, ptr, ptr, ptr, ptr, ptr, ptr, ptr, ptr, ptr, ptr, ptr, ptr, ptr, ptr, ptr, ptr, ptr, ptr, ptr, ptr, ptr, ptr, ptr, ptr, ptr, ptr, ptr, ptr, ptr, ptr, ptr, ptr, ptr, ptr, ptr, ptr, ptr, ptr, ptr, ptr, ptr, ptr, ptr, ptr, ptr, ptr, ptr, ptr, ptr, ptr, ptr, ptr, ptr, ptr, ptr, ptr, ptr, ptr, ptr, ptr, ptr, ptr, ptr, ptr, ptr, ptr, ptr, ptr, ptr, ptr, ptr, ptr, ptr, ptr, ptr, ptr, ptr, ptr, ptr, ptr, ptr, ptr, ptr, ptr, ptr, ptr, ptr, ptr, ptr, ptr, ptr, ptr, ptr, ptr, ptr, ptr, ptr, ptr, ptr, ptr, ptr, ptr, ptr, ptr, ptr, ptr, ptr, ptr, ptr, ptr, ptr, ptr, ptr, ptr, ptr, ptr, ptr, ptr, ptr, ptr, ptr, ptr, ptr, ptr, ptr, ptr, ptr, ptr, ptr, ptr, ptr, ptr, ptr, ptr, ptr, ptr, ptr, ptr, ptr, ptr, ptr }

@j2d_glFlush = external global ptr, align 8

; Function Attrs: nounwind uwtable
define void @Java_sun_java2d_opengl_OGLTextRenderer_drawGlyphList(ptr noundef %0, ptr noundef %1, i32 noundef %2, i8 noundef zeroext %3, i8 noundef zeroext %4, i8 noundef zeroext %5, i32 noundef %6, float noundef %7, float noundef %8, ptr noundef %9, ptr noundef %10) #0 {
  %12 = alloca ptr, align 8
  %13 = alloca ptr, align 8
  %14 = alloca i32, align 4
  %15 = alloca i8, align 1
  %16 = alloca i8, align 1
  %17 = alloca i8, align 1
  %18 = alloca i32, align 4
  %19 = alloca float, align 4
  %20 = alloca float, align 4
  %21 = alloca ptr, align 8
  %22 = alloca ptr, align 8
  %23 = alloca ptr, align 8
  %24 = alloca ptr, align 8
  %25 = alloca ptr, align 8
  %26 = alloca ptr, align 8
  store ptr %0, ptr %12, align 8
  store ptr %1, ptr %13, align 8
  store i32 %2, ptr %14, align 4
  store i8 %3, ptr %15, align 1
  store i8 %4, ptr %16, align 1
  store i8 %5, ptr %17, align 1
  store i32 %6, ptr %18, align 4
  store float %7, ptr %19, align 4
  store float %8, ptr %20, align 4
  store ptr %9, ptr %21, align 8
  store ptr %10, ptr %22, align 8
  %27 = load ptr, ptr %12, align 8
  %28 = load ptr, ptr %27, align 8
  %29 = getelementptr inbounds %struct.JNINativeInterface_, ptr %28, i32 0, i32 222
  %30 = load ptr, ptr %29, align 8
  %31 = load ptr, ptr %12, align 8
  %32 = load ptr, ptr %21, align 8
  %33 = call ptr %30(ptr noundef %31, ptr noundef %32, ptr noundef null)
  store ptr %33, ptr %23, align 8
  %34 = load ptr, ptr %23, align 8
  %35 = icmp ne ptr %34, null
  br i1 %35, label %36, label %97

36:                                               ; preds = %11
  %37 = call ptr (...) @OGLRenderQueue_GetCurrentContext()
  store ptr %37, ptr %24, align 8
  %38 = call ptr (...) @OGLRenderQueue_GetCurrentDestination()
  store ptr %38, ptr %25, align 8
  %39 = load i8, ptr %15, align 1
  %40 = icmp ne i8 %39, 0
  br i1 %40, label %41, label %72

41:                                               ; preds = %36
  %42 = load ptr, ptr %12, align 8
  %43 = load ptr, ptr %42, align 8
  %44 = getelementptr inbounds %struct.JNINativeInterface_, ptr %43, i32 0, i32 222
  %45 = load ptr, ptr %44, align 8
  %46 = load ptr, ptr %12, align 8
  %47 = load ptr, ptr %22, align 8
  %48 = call ptr %45(ptr noundef %46, ptr noundef %47, ptr noundef null)
  store ptr %48, ptr %26, align 8
  %49 = load ptr, ptr %26, align 8
  %50 = icmp ne ptr %49, null
  br i1 %50, label %51, label %71

51:                                               ; preds = %41
  %52 = load ptr, ptr %12, align 8
  %53 = load ptr, ptr %24, align 8
  %54 = load ptr, ptr %25, align 8
  %55 = load i32, ptr %14, align 4
  %56 = load i8, ptr %15, align 1
  %57 = load i8, ptr %16, align 1
  %58 = load i8, ptr %17, align 1
  %59 = load i32, ptr %18, align 4
  %60 = load float, ptr %19, align 4
  %61 = load float, ptr %20, align 4
  %62 = load ptr, ptr %23, align 8
  %63 = load ptr, ptr %26, align 8
  call void @OGLTR_DrawGlyphList(ptr noundef %52, ptr noundef %53, ptr noundef %54, i32 noundef %55, i8 noundef zeroext %56, i8 noundef zeroext %57, i8 noundef zeroext %58, i32 noundef %59, float noundef %60, float noundef %61, ptr noundef %62, ptr noundef %63)
  %64 = load ptr, ptr %12, align 8
  %65 = load ptr, ptr %64, align 8
  %66 = getelementptr inbounds %struct.JNINativeInterface_, ptr %65, i32 0, i32 223
  %67 = load ptr, ptr %66, align 8
  %68 = load ptr, ptr %12, align 8
  %69 = load ptr, ptr %22, align 8
  %70 = load ptr, ptr %26, align 8
  call void %67(ptr noundef %68, ptr noundef %69, ptr noundef %70, i32 noundef 2)
  br label %71

71:                                               ; preds = %51, %41
  br label %84

72:                                               ; preds = %36
  %73 = load ptr, ptr %12, align 8
  %74 = load ptr, ptr %24, align 8
  %75 = load ptr, ptr %25, align 8
  %76 = load i32, ptr %14, align 4
  %77 = load i8, ptr %15, align 1
  %78 = load i8, ptr %16, align 1
  %79 = load i8, ptr %17, align 1
  %80 = load i32, ptr %18, align 4
  %81 = load float, ptr %19, align 4
  %82 = load float, ptr %20, align 4
  %83 = load ptr, ptr %23, align 8
  call void @OGLTR_DrawGlyphList(ptr noundef %73, ptr noundef %74, ptr noundef %75, i32 noundef %76, i8 noundef zeroext %77, i8 noundef zeroext %78, i8 noundef zeroext %79, i32 noundef %80, float noundef %81, float noundef %82, ptr noundef %83, ptr noundef null)
  br label %84

84:                                               ; preds = %72, %71
  %85 = load ptr, ptr %24, align 8
  %86 = icmp ne ptr %85, null
  br i1 %86, label %87, label %89

87:                                               ; preds = %84
  call void @OGLRenderQueue_CheckPreviousOp(i32 noundef -1)
  %88 = load ptr, ptr @j2d_glFlush, align 8
  call void %88()
  br label %89

89:                                               ; preds = %87, %84
  %90 = load ptr, ptr %12, align 8
  %91 = load ptr, ptr %90, align 8
  %92 = getelementptr inbounds %struct.JNINativeInterface_, ptr %91, i32 0, i32 223
  %93 = load ptr, ptr %92, align 8
  %94 = load ptr, ptr %12, align 8
  %95 = load ptr, ptr %21, align 8
  %96 = load ptr, ptr %23, align 8
  call void %93(ptr noundef %94, ptr noundef %95, ptr noundef %96, i32 noundef 2)
  br label %97

97:                                               ; preds = %89, %11
  ret void
}