; Function Attrs: nounwind uwtable
define void @Java_sun_java2d_opengl_OGLTextRenderer_drawGlyphList(ptr noundef %0, ptr nocapture noundef readnone %1, i32 noundef %2, i8 noundef zeroext %3, i8 noundef zeroext %4, i8 noundef zeroext %5, i32 noundef %6, float noundef %7, float noundef %8, ptr noundef %9, ptr noundef %10) local_unnamed_addr #0 {
  %12 = load ptr, ptr %0, align 8
  %13 = getelementptr inbounds i8, ptr %12, i64 1776
  %14 = load ptr, ptr %13, align 8
  %15 = tail call ptr %14(ptr noundef nonnull %0, ptr noundef %9, ptr noundef null) #5
  %.not = icmp eq ptr %15, null
  br i1 %.not, label %36, label %16

16:                                               ; preds = %11
  %17 = tail call ptr (...) @OGLRenderQueue_GetCurrentContext() #5
  %18 = tail call ptr (...) @OGLRenderQueue_GetCurrentDestination() #5
  %.not42 = icmp eq i8 %3, 0
  br i1 %.not42, label %28, label %19

19:                                               ; preds = %16
  %20 = load ptr, ptr %0, align 8
  %21 = getelementptr inbounds i8, ptr %20, i64 1776
  %22 = load ptr, ptr %21, align 8
  %23 = tail call ptr %22(ptr noundef nonnull %0, ptr noundef %10, ptr noundef null) #5
  %.not43 = icmp eq ptr %23, null
  br i1 %.not43, label %29, label %24

24:                                               ; preds = %19
  tail call void @OGLTR_DrawGlyphList(ptr nonnull poison, ptr noundef %17, ptr noundef %18, i32 noundef %2, i8 noundef zeroext %3, i8 noundef zeroext %4, i8 noundef zeroext %5, i32 noundef %6, float noundef %7, float noundef %8, ptr noundef nonnull %15, ptr noundef nonnull %23)
  %25 = load ptr, ptr %0, align 8
  %26 = getelementptr inbounds i8, ptr %25, i64 1784
  %27 = load ptr, ptr %26, align 8
  tail call void %27(ptr noundef nonnull %0, ptr noundef %10, ptr noundef nonnull %23, i32 noundef 2) #5
  br label %29

28:                                               ; preds = %16
  tail call void @OGLTR_DrawGlyphList(ptr nonnull poison, ptr noundef %17, ptr noundef %18, i32 noundef %2, i8 noundef zeroext 0, i8 noundef zeroext %4, i8 noundef zeroext %5, i32 noundef %6, float noundef %7, float noundef %8, ptr noundef nonnull %15, ptr noundef null)
  br label %29

29:                                               ; preds = %19, %24, %28
  %.not44 = icmp eq ptr %17, null
  br i1 %.not44, label %32, label %30

30:                                               ; preds = %29
  tail call void @OGLRenderQueue_CheckPreviousOp(i32 noundef -1) #5
  %31 = load ptr, ptr @j2d_glFlush, align 8
  tail call void %31() #5
  br label %32

32:                                               ; preds = %30, %29
  %33 = load ptr, ptr %0, align 8
  %34 = getelementptr inbounds i8, ptr %33, i64 1784
  %35 = load ptr, ptr %34, align 8
  tail call void %35(ptr noundef nonnull %0, ptr noundef %9, ptr noundef nonnull %15, i32 noundef 2) #5
  br label %36

36:                                               ; preds = %32, %11
  ret void
}